target datalayout = "e-m:e-p270:32:32-p271:32:32-p272:64:64-i64:64-i128:128-f80:128-n8:16:32:64-S128"
target triple = "x86_64-pc-linux-gnu"

%struct.psa_global_data_t = type { [23 x ptr], [22 x i64], i8 }
%struct.psa_key_slot_t = type { %struct.psa_key_attributes_s, i32, i8, %union.anon, %struct.key_data }
%struct.psa_key_attributes_s = type { i16, i16, i32, %struct.psa_key_policy_s, i32 }
%struct.psa_key_policy_s = type { i32, i32, i32 }
%union.anon = type { %struct.anon.0 }
%struct.anon.0 = type { i64 }
%struct.key_data = type { ptr, i64 }

@global_data = internal global %struct.psa_global_data_t zeroinitializer, align 8

; Function Attrs: inlinehint nounwind uwtable
define internal ptr @get_key_slot(i64 noundef %0, i64 noundef %1) #3 {
  %3 = alloca i64, align 8
  %4 = alloca i64, align 8
  store i64 %0, ptr %3, align 8, !tbaa !11
  store i64 %1, ptr %4, align 8, !tbaa !11
  %5 = load i64, ptr %3, align 8, !tbaa !11
  %6 = getelementptr inbounds nuw [23 x ptr], ptr @global_data, i64 0, i64 %5
  %7 = load ptr, ptr %6, align 8, !tbaa !7
  %8 = load i64, ptr %4, align 8, !tbaa !11
  %9 = getelementptr inbounds nuw %struct.psa_key_slot_t, ptr %7, i64 %8
  ret ptr %9
}

; Function Attrs: inlinehint nounwind uwtable
define internal i64 @key_slice_length(i64 noundef %0) #3 {
  %2 = alloca i64, align 8
  %3 = alloca i64, align 8
  store i64 %0, ptr %3, align 8, !tbaa !11
  %4 = load i64, ptr %3, align 8, !tbaa !11
  %5 = icmp eq i64 %4, 22
  br i1 %5, label %6, label %7

6:                                                ; preds = %1
  store i64 32, ptr %2, align 8
  br label %12

7:                                                ; preds = %1
  %8 = load i64, ptr %3, align 8, !tbaa !11
  %9 = trunc i64 %8 to i32
  %10 = shl i32 16, %9
  %11 = zext i32 %10 to i64
  store i64 %11, ptr %2, align 8
  br label %12

12:                                               ; preds = %7, %6
  %13 = load i64, ptr %2, align 8
  ret i64 %13
}

; Function Attrs: nounwind uwtable
define hidden void @psa_wipe_all_key_slots() #0 {
  %1 = alloca i64, align 8
  %2 = alloca i32, align 4
  %3 = alloca i64, align 8
  %4 = alloca ptr, align 8
  %5 = alloca i64, align 8
  call void @llvm.lifetime.start.p0(i64 8, ptr %1) #7
  store i64 0, ptr %1, align 8, !tbaa !11
  br label %6

6:                                                ; preds = %52, %0
  %7 = load i64, ptr %1, align 8, !tbaa !11
  %8 = icmp ult i64 %7, 23
  br i1 %8, label %10, label %9

9:                                                ; preds = %6
  store i32 2, ptr %2, align 4
  call void @llvm.lifetime.end.p0(i64 8, ptr %1) #7
  br label %55

10:                                               ; preds = %6
  %11 = load i64, ptr %1, align 8, !tbaa !11
  %12 = getelementptr inbounds nuw [23 x ptr], ptr @global_data, i64 0, i64 %11
  %13 = load ptr, ptr %12, align 8, !tbaa !7
  %14 = icmp eq ptr %13, null
  br i1 %14, label %15, label %16

15:                                               ; preds = %10
  br label %52

16:                                               ; preds = %10
  call void @llvm.lifetime.start.p0(i64 8, ptr %3) #7
  store i64 0, ptr %3, align 8, !tbaa !11
  br label %17

17:                                               ; preds = %43, %16
  %18 = load i64, ptr %3, align 8, !tbaa !11
  %19 = load i64, ptr %1, align 8, !tbaa !11
  %20 = call i64 @key_slice_length(i64 noundef %19)
  %21 = icmp ult i64 %18, %20
  br i1 %21, label %23, label %22

22:                                               ; preds = %17
  store i32 5, ptr %2, align 4
  call void @llvm.lifetime.end.p0(i64 8, ptr %3) #7
  br label %46

23:                                               ; preds = %17
  call void @llvm.lifetime.start.p0(i64 8, ptr %4) #7
  %24 = load i64, ptr %1, align 8, !tbaa !11
  %25 = load i64, ptr %3, align 8, !tbaa !11
  %26 = call ptr @get_key_slot(i64 noundef %24, i64 noundef %25)
  store ptr %26, ptr %4, align 8, !tbaa !7
  %27 = load ptr, ptr %4, align 8, !tbaa !7
  %28 = getelementptr inbounds nuw %struct.psa_key_slot_t, ptr %27, i32 0, i32 1
  %29 = load i32, ptr %28, align 8, !tbaa !13
  %30 = icmp eq i32 %29, 0
  br i1 %30, label %31, label %32

31:                                               ; preds = %23
  store i32 7, ptr %2, align 4
  br label %40

32:                                               ; preds = %23
  %33 = load ptr, ptr %4, align 8, !tbaa !7
  %34 = getelementptr inbounds nuw %struct.psa_key_slot_t, ptr %33, i32 0, i32 3
  %35 = getelementptr inbounds nuw %struct.anon.0, ptr %34, i32 0, i32 0
  store i64 1, ptr %35, align 8, !tbaa !20
  %36 = load ptr, ptr %4, align 8, !tbaa !7
  %37 = getelementptr inbounds nuw %struct.psa_key_slot_t, ptr %36, i32 0, i32 1
  store i32 3, ptr %37, align 8, !tbaa !13
  %38 = load ptr, ptr %4, align 8, !tbaa !7
  %39 = call i32 @psa_wipe_key_slot(ptr noundef %38)
  store i32 0, ptr %2, align 4
  br label %40

40:                                               ; preds = %32, %31
  call void @llvm.lifetime.end.p0(i64 8, ptr %4) #7
  %41 = load i32, ptr %2, align 4
  switch i32 %41, label %67 [
    i32 0, label %42
    i32 7, label %43
  ]

42:                                               ; preds = %40
  br label %43

43:                                               ; preds = %42, %40
  %44 = load i64, ptr %3, align 8, !tbaa !11
  %45 = add i64 %44, 1
  store i64 %45, ptr %3, align 8, !tbaa !11
  br label %17, !llvm.loop !21

46:                                               ; preds = %22
  %47 = load i64, ptr %1, align 8, !tbaa !11
  %48 = getelementptr inbounds nuw [23 x ptr], ptr @global_data, i64 0, i64 %47
  %49 = load ptr, ptr %48, align 8, !tbaa !7
  call void @free(ptr noundef %49) #7
  %50 = load i64, ptr %1, align 8, !tbaa !11
  %51 = getelementptr inbounds nuw [23 x ptr], ptr @global_data, i64 0, i64 %50
  store ptr null, ptr %51, align 8, !tbaa !7
  br label %52

52:                                               ; preds = %46, %15
  %53 = load i64, ptr %1, align 8, !tbaa !11
  %54 = add i64 %53, 1
  store i64 %54, ptr %1, align 8, !tbaa !11
  br label %6, !llvm.loop !23

55:                                               ; preds = %9
  call void @llvm.lifetime.start.p0(i64 8, ptr %5) #7
  store i64 0, ptr %5, align 8, !tbaa !11
  br label %56

56:                                               ; preds = %63, %55
  %57 = load i64, ptr %5, align 8, !tbaa !11
  %58 = icmp ult i64 %57, 22
  br i1 %58, label %60, label %59

59:                                               ; preds = %56
  store i32 8, ptr %2, align 4
  call void @llvm.lifetime.end.p0(i64 8, ptr %5) #7
  br label %66

60:                                               ; preds = %56
  %61 = load i64, ptr %5, align 8, !tbaa !11
  %62 = getelementptr inbounds nuw [22 x i64], ptr getelementptr inbounds nuw (%struct.psa_global_data_t, ptr @global_data, i32 0, i32 1), i64 0, i64 %61
  store i64 0, ptr %62, align 8, !tbaa !11
  br label %63

63:                                               ; preds = %60
  %64 = load i64, ptr %5, align 8, !tbaa !11
  %65 = add i64 %64, 1
  store i64 %65, ptr %5, align 8, !tbaa !11
  br label %56, !llvm.loop !24

66:                                               ; preds = %59
  store i8 0, ptr getelementptr inbounds nuw (%struct.psa_global_data_t, ptr @global_data, i32 0, i32 2), align 8, !tbaa !9
  ret void

67:                                               ; preds = %40
  unreachable
}