; Function Attrs: nounwind uwtable
define hidden void @psa_wipe_all_key_slots() local_unnamed_addr #4 {
  br label %1

1:                                                ; preds = %0, %20
  %.01620 = phi i64 [ 0, %0 ], [ %21, %20 ]
  %2 = getelementptr inbounds nuw [23 x ptr], ptr @global_data, i64 0, i64 %.01620
  %3 = load ptr, ptr %2, align 8, !tbaa !3
  %4 = icmp eq ptr %3, null
  br i1 %4, label %20, label %.preheader18

.preheader18:                                     ; preds = %1
  %5 = icmp eq i64 %.01620, 22
  %6 = trunc nuw i64 %.01620 to i32
  %7 = shl i32 16, %6
  %8 = zext i32 %7 to i64
  %.0.i = select i1 %5, i64 32, i64 %8
  %.not = icmp eq i64 %.0.i, 0
  br i1 %.not, label %._crit_edge, label %.lr.ph

._crit_edge.loopexit:                             ; preds = %18
  %.pre = load ptr, ptr %2, align 8, !tbaa !3
  br label %._crit_edge

._crit_edge:                                      ; preds = %._crit_edge.loopexit, %.preheader18
  %9 = phi ptr [ %.pre, %._crit_edge.loopexit ], [ %3, %.preheader18 ]
  tail call void @free(ptr noundef %9) #12
  store ptr null, ptr %2, align 8, !tbaa !3
  br label %20

.lr.ph:                                           ; preds = %.preheader18, %18
  %.01719 = phi i64 [ %19, %18 ], [ 0, %.preheader18 ]
  %10 = load ptr, ptr %2, align 8, !tbaa !3
  %11 = getelementptr inbounds nuw %struct.psa_key_slot_t, ptr %10, i64 %.01719
  %12 = getelementptr inbounds nuw i8, ptr %11, i64 24
  %13 = load i32, ptr %12, align 8, !tbaa !9
  %14 = icmp eq i32 %13, 0
  br i1 %14, label %18, label %15

15:                                               ; preds = %.lr.ph
  %16 = getelementptr inbounds nuw i8, ptr %11, i64 32
  store i64 1, ptr %16, align 8, !tbaa !18
  store i32 3, ptr %12, align 8, !tbaa !9
  %17 = tail call i32 @psa_wipe_key_slot(ptr noundef nonnull %11) #12
  br label %18

18:                                               ; preds = %.lr.ph, %15
  %19 = add nuw nsw i64 %.01719, 1
  %exitcond.not = icmp eq i64 %19, %.0.i
  br i1 %exitcond.not, label %._crit_edge.loopexit, label %.lr.ph, !llvm.loop !19

20:                                               ; preds = %1, %._crit_edge
  %21 = add nuw nsw i64 %.01620, 1
  %exitcond22.not = icmp eq i64 %21, 23
  br i1 %exitcond22.not, label %.preheader.preheader, label %1, !llvm.loop !21

.preheader.preheader:                             ; preds = %20
  tail call void @llvm.memset.p0.i64(ptr noundef nonnull align 8 dereferenceable(177) getelementptr inbounds nuw (i8, ptr @global_data, i64 184), i8 0, i64 177, i1 false)
  ret void
}